target datalayout = "e-m:e-p270:32:32-p271:32:32-p272:64:64-i64:64-i128:128-f80:128-n8:16:32:64-S128"
target triple = "x86_64-pc-linux-gnu"

%struct.packing_data = type { ptr, ptr, i32, i32, ptr, i32, ptr, ptr, ptr, ptr, %union.pthread_mutex_t, ptr, i32, i32, i64, i64, ptr, ptr, ptr }
%union.pthread_mutex_t = type { %struct.__pthread_mutex_s }
%struct.__pthread_mutex_s = type { i32, i32, i32, i32, i32, i16, i16, %struct.__pthread_internal_list }
%struct.__pthread_internal_list = type { ptr, ptr }
%struct.object_entry = type { %struct.pack_idx_entry, ptr, i64, i32, i32, i32, i32, i32, [3 x i8], i8, i64 }
%struct.pack_idx_entry = type { %struct.object_id, i32, i64 }
%struct.object_id = type { [32 x i8], i32 }

@to_pack = internal global %struct.packing_data zeroinitializer, align 8
@the_repository = external global ptr, align 8

; Function Attrs: nounwind uwtable
define internal i32 @mark_tagged(ptr noundef %0, ptr noundef %1, ptr noundef %2, i32 noundef %3, ptr noundef %4) #0 {
  %6 = alloca ptr, align 8
  %7 = alloca ptr, align 8
  %8 = alloca ptr, align 8
  %9 = alloca i32, align 4
  %10 = alloca ptr, align 8
  %11 = alloca %struct.object_id, align 4
  %12 = alloca ptr, align 8
  store ptr %0, ptr %6, align 8, !tbaa !24
  store ptr %1, ptr %7, align 8, !tbaa !24
  store ptr %2, ptr %8, align 8, !tbaa !190
  store i32 %3, ptr %9, align 4, !tbaa !27
  store ptr %4, ptr %10, align 8, !tbaa !134
  call void @llvm.lifetime.start.p0(i64 36, ptr %11) #11
  call void @llvm.lifetime.start.p0(i64 8, ptr %12) #11
  %13 = load ptr, ptr %8, align 8, !tbaa !190
  %14 = call ptr @packlist_find(ptr noundef @to_pack, ptr noundef %13)
  store ptr %14, ptr %12, align 8, !tbaa !9
  %15 = load ptr, ptr %12, align 8, !tbaa !9
  %16 = icmp ne ptr %15, null
  br i1 %16, label %17, label %23

17:                                               ; preds = %5
  %18 = load ptr, ptr %12, align 8, !tbaa !9
  %19 = getelementptr inbounds nuw %struct.object_entry, ptr %18, i32 0, i32 10
  %20 = load i64, ptr %19, align 8
  %21 = and i64 %20, -549755813889
  %22 = or i64 %21, 549755813888
  store i64 %22, ptr %19, align 8
  br label %23

23:                                               ; preds = %17, %5
  %24 = load ptr, ptr @the_repository, align 8, !tbaa !11
  %25 = load ptr, ptr %8, align 8, !tbaa !190
  %26 = call i32 @peel_iterated_oid(ptr noundef %24, ptr noundef %25, ptr noundef %11)
  %27 = icmp ne i32 %26, 0
  br i1 %27, label %39, label %28

28:                                               ; preds = %23
  %29 = call ptr @packlist_find(ptr noundef @to_pack, ptr noundef %11)
  store ptr %29, ptr %12, align 8, !tbaa !9
  %30 = load ptr, ptr %12, align 8, !tbaa !9
  %31 = icmp ne ptr %30, null
  br i1 %31, label %32, label %38

32:                                               ; preds = %28
  %33 = load ptr, ptr %12, align 8, !tbaa !9
  %34 = getelementptr inbounds nuw %struct.object_entry, ptr %33, i32 0, i32 10
  %35 = load i64, ptr %34, align 8
  %36 = and i64 %35, -549755813889
  %37 = or i64 %36, 549755813888
  store i64 %37, ptr %34, align 8
  br label %38

38:                                               ; preds = %32, %28
  br label %39

39:                                               ; preds = %38, %23
  call void @llvm.lifetime.end.p0(i64 8, ptr %12) #11
  call void @llvm.lifetime.end.p0(i64 36, ptr %11) #11
  ret i32 0
}