; Function Attrs: nounwind uwtable
define internal noundef i32 @mark_tagged(ptr readnone captures(none) %0, ptr readnone captures(none) %1, ptr noundef %2, i32 %3, ptr readnone captures(none) %4) #0 {
  %6 = alloca %struct.object_id, align 4
  call void @llvm.lifetime.start.p0(i64 36, ptr nonnull %6) #25
  %7 = tail call ptr @packlist_find(ptr noundef nonnull @to_pack, ptr noundef %2) #25
  %.not = icmp eq ptr %7, null
  br i1 %.not, label %12, label %8

8:                                                ; preds = %5
  %9 = getelementptr inbounds nuw i8, ptr %7, i64 88
  %10 = load i64, ptr %9, align 8
  %11 = or i64 %10, 549755813888
  store i64 %11, ptr %9, align 8
  br label %12

12:                                               ; preds = %8, %5
  %13 = load ptr, ptr @the_repository, align 8, !tbaa !4
  %14 = call i32 @peel_iterated_oid(ptr noundef %13, ptr noundef %2, ptr noundef nonnull %6) #25
  %.not7 = icmp eq i32 %14, 0
  br i1 %.not7, label %15, label %21

15:                                               ; preds = %12
  %16 = call ptr @packlist_find(ptr noundef nonnull @to_pack, ptr noundef nonnull %6) #25
  %.not8 = icmp eq ptr %16, null
  br i1 %.not8, label %21, label %17

17:                                               ; preds = %15
  %18 = getelementptr inbounds nuw i8, ptr %16, i64 88
  %19 = load i64, ptr %18, align 8
  %20 = or i64 %19, 549755813888
  store i64 %20, ptr %18, align 8
  br label %21

21:                                               ; preds = %15, %17, %12
  call void @llvm.lifetime.end.p0(i64 36, ptr nonnull %6) #25
  ret i32 0
}